target datalayout = "e-m:e-p270:32:32-p271:32:32-p272:64:64-i64:64-i128:128-f80:128-n8:16:32:64-S128"
target triple = "x86_64-pc-linux-gnu"

%"struct.Luau::FValue" = type { i8, i8, ptr, ptr }
%"struct.Luau::TypeLevel" = type { i32, i32 }
%"class.std::vector.21" = type { %"struct.std::_Vector_base.22" }
%"struct.std::_Vector_base.22" = type { %"struct.std::_Vector_base<const Luau::Type *, std::allocator<const Luau::Type *>>::_Vector_impl" }
%"struct.std::_Vector_base<const Luau::Type *, std::allocator<const Luau::Type *>>::_Vector_impl" = type { %"struct.std::_Vector_base<const Luau::Type *, std::allocator<const Luau::Type *>>::_Vector_impl_data" }
%"struct.std::_Vector_base<const Luau::Type *, std::allocator<const Luau::Type *>>::_Vector_impl_data" = type { ptr, ptr, ptr }
%"class.std::vector.26" = type { %"struct.std::_Vector_base.27" }
%"struct.std::_Vector_base.27" = type { %"struct.std::_Vector_base<const Luau::TypePackVar *, std::allocator<const Luau::TypePackVar *>>::_Vector_impl" }
%"struct.std::_Vector_base<const Luau::TypePackVar *, std::allocator<const Luau::TypePackVar *>>::_Vector_impl" = type { %"struct.std::_Vector_base<const Luau::TypePackVar *, std::allocator<const Luau::TypePackVar *>>::_Vector_impl_data" }
%"struct.std::_Vector_base<const Luau::TypePackVar *, std::allocator<const Luau::TypePackVar *>>::_Vector_impl_data" = type { ptr, ptr, ptr }
%"struct.Luau::NotNull" = type { ptr }
%"struct.Luau::Location" = type { %"struct.Luau::Position", %"struct.Luau::Position" }
%"struct.Luau::Position" = type { i32, i32 }
%"struct.std::_Vector_base.91" = type { %"struct.std::_Vector_base<Luau::TypeError, std::allocator<Luau::TypeError>>::_Vector_impl" }
%"struct.std::_Vector_base<Luau::TypeError, std::allocator<Luau::TypeError>>::_Vector_impl" = type { %"struct.std::_Vector_base<Luau::TypeError, std::allocator<Luau::TypeError>>::_Vector_impl_data" }
%"struct.std::_Vector_base<Luau::TypeError, std::allocator<Luau::TypeError>>::_Vector_impl_data" = type { ptr, ptr, ptr }
%"struct.Luau::Unifier" = type <{ ptr, %"struct.Luau::NotNull", %"struct.Luau::NotNull.97", %"struct.Luau::NotNull.98", %"struct.Luau::TxnLog", i8, [7 x i8], %"class.std::vector.90", %"struct.Luau::Location", i32, i8, i8, [2 x i8], i32, i8, [3 x i8], ptr, %"class.std::vector.21", %"class.std::vector.26", %"class.std::optional.99", i8, [7 x i8] }>
%"struct.Luau::NotNull.97" = type { ptr }
%"struct.Luau::NotNull.98" = type { ptr }
%"struct.Luau::TxnLog" = type { %"class.Luau::DenseHashMap", %"class.Luau::DenseHashMap.2", ptr, %"class.std::vector", i8, i8, ptr }
%"class.Luau::DenseHashMap" = type { %"class.Luau::detail::DenseHashTable.0" }
%"class.Luau::detail::DenseHashTable.0" = type <{ ptr, i64, i64, ptr, [8 x i8] }>
%"class.Luau::DenseHashMap.2" = type { %"class.Luau::detail::DenseHashTable.3" }
%"class.Luau::detail::DenseHashTable.3" = type <{ ptr, i64, i64, ptr, [8 x i8] }>
%"class.std::vector" = type { %"struct.std::_Vector_base" }
%"struct.std::_Vector_base" = type { %"struct.std::_Vector_base<std::pair<const void *, const void *>, std::allocator<std::pair<const void *, const void *>>>::_Vector_impl" }
%"struct.std::_Vector_base<std::pair<const void *, const void *>, std::allocator<std::pair<const void *, const void *>>>::_Vector_impl" = type { %"struct.std::_Vector_base<std::pair<const void *, const void *>, std::allocator<std::pair<const void *, const void *>>>::_Vector_impl_data" }
%"struct.std::_Vector_base<std::pair<const void *, const void *>, std::allocator<std::pair<const void *, const void *>>>::_Vector_impl_data" = type { ptr, ptr, ptr }
%"class.std::vector.90" = type { %"struct.std::_Vector_base.91" }
%"class.std::optional.99" = type { %"struct.std::_Optional_base.100" }
%"struct.std::_Optional_base.100" = type { %"struct.std::_Optional_payload.102" }
%"struct.std::_Optional_payload.102" = type { %"struct.std::_Optional_payload_base.base.104", [3 x i8] }
%"struct.std::_Optional_payload_base.base.104" = type <{ %"union.std::_Optional_payload_base<int>::_Storage", i8 }>
%"union.std::_Optional_payload_base<int>::_Storage" = type { i32 }
%"struct.Luau::NotNull.205" = type { ptr }
%class.anon.260 = type { ptr }

@_ZN5FFlag12LuauSolverV2E = external global %"struct.Luau::FValue", align 8
@_ZN5FFlag27LuauFreeTypesMustHaveBoundsE = external global %"struct.Luau::FValue", align 8

; Function Attrs: mustprogress nounwind uwtable
define linkonce_odr dso_local void @_ZN4Luau7NotNullINS_9TypeArenaEEC2EPS1_(ptr noundef nonnull align 8 dereferenceable(8) %0, ptr noundef %1) unnamed_addr #2 comdat align 2 {
  %3 = alloca ptr, align 8
  %4 = alloca ptr, align 8
  store ptr %0, ptr %3, align 8, !tbaa !459
  store ptr %1, ptr %4, align 8, !tbaa !24
  %5 = load ptr, ptr %3, align 8
  %6 = getelementptr inbounds nuw %"struct.Luau::NotNull.205", ptr %5, i32 0, i32 0
  %7 = load ptr, ptr %4, align 8, !tbaa !24
  store ptr %7, ptr %6, align 8, !tbaa !461
  ret void
}

; Function Attrs: alwaysinline mustprogress nounwind uwtable
define linkonce_odr dso_local noundef zeroext i1 @_ZNK4Luau6FValueIbEcvbEv(ptr noundef nonnull align 8 dereferenceable(24) %0) #11 comdat align 2 {
  %2 = alloca ptr, align 8
  store ptr %0, ptr %2, align 8, !tbaa !8
  %3 = load ptr, ptr %2, align 8
  %4 = getelementptr inbounds nuw %"struct.Luau::FValue", ptr %3, i32 0, i32 0
  %5 = load i8, ptr %4, align 8, !tbaa !17, !range !15, !noundef !16
  %6 = trunc i8 %5 to i1
  ret i1 %6
}

; Function Attrs: inlinehint mustprogress uwtable
define internal noundef ptr @"_ZZN4Luau7Unifier9tryUnify_EPKNS_11TypePackVarES3_bENK3$_0clEPNS_5ScopeENS_9TypeLevelE"(ptr noundef nonnull align 8 dereferenceable(8) %0, ptr noundef %1, i64 %2) #6 align 2 {
  %4 = alloca ptr, align 8
  %5 = alloca %"struct.Luau::TypeLevel", align 4
  %6 = alloca ptr, align 8
  %7 = alloca ptr, align 8
  %8 = alloca %"struct.Luau::NotNull.205", align 8
  %9 = alloca %"struct.Luau::NotNull", align 8
  %10 = alloca %"struct.Luau::NotNull", align 8
  %11 = alloca %"struct.Luau::TypeLevel", align 4
  %12 = alloca %"struct.Luau::TypeLevel", align 4
  store i64 %2, ptr %5, align 4
  store ptr %0, ptr %6, align 8, !tbaa !314
  store ptr %1, ptr %7, align 8, !tbaa !26
  %13 = load ptr, ptr %6, align 8
  %14 = getelementptr inbounds nuw %class.anon.260, ptr %13, i32 0, i32 0
  %15 = load ptr, ptr %14, align 8, !tbaa !533
  %16 = call noundef zeroext i1 @_ZNK4Luau6FValueIbEcvbEv(ptr noundef nonnull align 8 dereferenceable(24) @_ZN5FFlag12LuauSolverV2E)
  br i1 %16, label %17, label %27

17:                                               ; preds = %3
  %18 = getelementptr inbounds nuw %"struct.Luau::Unifier", ptr %15, i32 0, i32 0
  %19 = load ptr, ptr %18, align 8, !tbaa !216
  call void @_ZN4Luau7NotNullINS_9TypeArenaEEC2EPS1_(ptr noundef nonnull align 8 dereferenceable(8) %8, ptr noundef %19)
  %20 = getelementptr inbounds nuw %"struct.Luau::Unifier", ptr %15, i32 0, i32 1
  call void @llvm.memcpy.p0.p0.i64(ptr align 8 %9, ptr align 8 %20, i64 8, i1 false), !tbaa.struct !217
  %21 = load ptr, ptr %7, align 8, !tbaa !26
  %22 = getelementptr inbounds nuw %"struct.Luau::NotNull.205", ptr %8, i32 0, i32 0
  %23 = load ptr, ptr %22, align 8
  %24 = getelementptr inbounds nuw %"struct.Luau::NotNull", ptr %9, i32 0, i32 0
  %25 = load ptr, ptr %24, align 8
  %26 = call noundef ptr @_ZN4Luau9freshTypeENS_7NotNullINS_9TypeArenaEEENS0_INS_12BuiltinTypesEEEPNS_5ScopeE(ptr %23, ptr %25, ptr noundef %21)
  store ptr %26, ptr %4, align 8
  br label %46

27:                                               ; preds = %3
  %28 = call noundef zeroext i1 @_ZNK4Luau6FValueIbEcvbEv(ptr noundef nonnull align 8 dereferenceable(24) @_ZN5FFlag27LuauFreeTypesMustHaveBoundsE)
  br i1 %28, label %29, label %38

29:                                               ; preds = %27
  %30 = getelementptr inbounds nuw %"struct.Luau::Unifier", ptr %15, i32 0, i32 0
  %31 = load ptr, ptr %30, align 8, !tbaa !216
  %32 = getelementptr inbounds nuw %"struct.Luau::Unifier", ptr %15, i32 0, i32 1
  call void @llvm.memcpy.p0.p0.i64(ptr align 8 %10, ptr align 8 %32, i64 8, i1 false), !tbaa.struct !217
  %33 = load ptr, ptr %7, align 8, !tbaa !26
  call void @llvm.memcpy.p0.p0.i64(ptr align 4 %11, ptr align 4 %5, i64 8, i1 false), !tbaa.struct !33
  %34 = getelementptr inbounds nuw %"struct.Luau::NotNull", ptr %10, i32 0, i32 0
  %35 = load ptr, ptr %34, align 8
  %36 = load i64, ptr %11, align 4
  %37 = call noundef ptr @_ZN4Luau9TypeArena9freshTypeENS_7NotNullINS_12BuiltinTypesEEEPNS_5ScopeENS_9TypeLevelE(ptr noundef nonnull align 8 dereferenceable(88) %31, ptr %35, ptr noundef %33, i64 %36)
  br label %44

38:                                               ; preds = %27
  %39 = getelementptr inbounds nuw %"struct.Luau::Unifier", ptr %15, i32 0, i32 0
  %40 = load ptr, ptr %39, align 8, !tbaa !216
  %41 = load ptr, ptr %7, align 8, !tbaa !26
  call void @llvm.memcpy.p0.p0.i64(ptr align 4 %12, ptr align 4 %5, i64 8, i1 false), !tbaa.struct !33
  %42 = load i64, ptr %12, align 4
  %43 = call noundef ptr @_ZN4Luau9TypeArena20freshType_DEPRECATEDEPNS_5ScopeENS_9TypeLevelE(ptr noundef nonnull align 8 dereferenceable(88) %40, ptr noundef %41, i64 %42)
  br label %44

44:                                               ; preds = %38, %29
  %45 = phi ptr [ %37, %29 ], [ %43, %38 ]
  store ptr %45, ptr %4, align 8
  br label %46

46:                                               ; preds = %44, %17
  %47 = load ptr, ptr %4, align 8
  ret ptr %47
}