; Function Attrs: inlinehint mustprogress uwtable
define internal fastcc noundef ptr @"_ZZN4Luau7Unifier9tryUnify_EPKNS_11TypePackVarES3_bENK3$_0clEPNS_5ScopeENS_9TypeLevelE"(ptr readonly captures(none) %.0.val, ptr noundef %0, i64 %1) unnamed_addr #13 align 2 {
  %3 = load i8, ptr @_ZN5FFlag12LuauSolverV2E, align 8, !tbaa !371, !range !43, !noundef !44
  %4 = trunc nuw i8 %3 to i1
  br i1 %4, label %5, label %9

5:                                                ; preds = %2
  %6 = load ptr, ptr %.0.val, align 8, !tbaa !168
  %7 = getelementptr inbounds nuw i8, ptr %.0.val, i64 8
  %.sroa.03.0.copyload = load ptr, ptr %7, align 8, !tbaa !169
  %8 = tail call noundef ptr @_ZN4Luau9freshTypeENS_7NotNullINS_9TypeArenaEEENS0_INS_12BuiltinTypesEEEPNS_5ScopeE(ptr %6, ptr %.sroa.03.0.copyload, ptr noundef %0)
  br label %18

9:                                                ; preds = %2
  %10 = load i8, ptr @_ZN5FFlag27LuauFreeTypesMustHaveBoundsE, align 8, !tbaa !371, !range !43, !noundef !44
  %11 = trunc nuw i8 %10 to i1
  %12 = load ptr, ptr %.0.val, align 8, !tbaa !168
  br i1 %11, label %13, label %16

13:                                               ; preds = %9
  %14 = getelementptr inbounds nuw i8, ptr %.0.val, i64 8
  %.sroa.02.0.copyload = load ptr, ptr %14, align 8, !tbaa !169
  %15 = tail call noundef ptr @_ZN4Luau9TypeArena9freshTypeENS_7NotNullINS_12BuiltinTypesEEEPNS_5ScopeENS_9TypeLevelE(ptr noundef nonnull align 8 dereferenceable(88) %12, ptr %.sroa.02.0.copyload, ptr noundef %0, i64 %1)
  br label %18

16:                                               ; preds = %9
  %17 = tail call noundef ptr @_ZN4Luau9TypeArena20freshType_DEPRECATEDEPNS_5ScopeENS_9TypeLevelE(ptr noundef nonnull align 8 dereferenceable(88) %12, ptr noundef %0, i64 %1)
  br label %18

18:                                               ; preds = %13, %16, %5
  %.0 = phi ptr [ %8, %5 ], [ %15, %13 ], [ %17, %16 ]
  ret ptr %.0
}